target datalayout = "e-m:e-p270:32:32-p271:32:32-p272:64:64-i64:64-i128:128-f80:128-n8:16:32:64-S128"
target triple = "x86_64-pc-linux-gnu"

%struct._e_guid_t = type { i32, i16, i16, [8 x i8] }
%struct._packet_info = type { ptr, ptr, i32, i32, %struct.nstime_t, %struct.nstime_t, %struct.nstime_t, i8, ptr, ptr, ptr, ptr, %struct._address, %struct._address, %struct._address, %struct._address, %struct._address, %struct._address, i32, ptr, i8, [3 x i8], %struct.anon, i32, i32, i32, i32, ptr, i8, ptr, ptr, i16, i16, i32, i32, i16, i32, i32, ptr, ptr, ptr, i8, i8, i16, i16, i16, i32, i16, i16, ptr, ptr, ptr, ptr, ptr, i32, i32 }
%struct.nstime_t = type { i64, i32 }
%struct._address = type { i32, i32, ptr, ptr }
%struct.anon = type { i8, [3 x i8] }

@hf_dtpt_guid_length = internal global i32 0, align 4
@hf_dtpt_guid_data = internal global i32 0, align 4
@ett_dtpt_guid = internal global i32 0, align 4
@.str.220 = private unnamed_addr constant [12 x i8] c"%s: %s (%s)\00", align 1

; Function Attrs: alwaysinline nounwind
define internal ptr @memset.inline(ptr %0, i32 %1, i64 %2) #4 {
  %4 = alloca ptr, align 8
  %5 = alloca i32, align 4
  %6 = alloca i64, align 8
  store ptr %0, ptr %4, align 8
  store i32 %1, ptr %5, align 4
  store i64 %2, ptr %6, align 8
  %7 = load ptr, ptr %4, align 8
  %8 = load i32, ptr %5, align 4
  %9 = load i64, ptr %6, align 8
  %10 = load ptr, ptr %4, align 8
  %11 = call i64 @llvm.objectsize.i64.p0(ptr %10, i1 false, i1 true, i1 true)
  %12 = call ptr @__memset_chk(ptr noundef %7, i32 noundef %8, i64 noundef %9, i64 noundef %11) #7
  ret ptr %12
}

; Function Attrs: null_pointer_is_valid sspstrong uwtable
define internal i32 @dissect_dtpt_guid(ptr noundef %0, i32 noundef %1, ptr noundef %2, ptr noundef %3, i32 noundef %4) #0 {
  %6 = alloca ptr, align 8
  %7 = alloca i32, align 4
  %8 = alloca ptr, align 8
  %9 = alloca ptr, align 8
  %10 = alloca i32, align 4
  %11 = alloca i32, align 4
  %12 = alloca %struct._e_guid_t, align 4
  %13 = alloca ptr, align 8
  %14 = alloca ptr, align 8
  %15 = alloca ptr, align 8
  %16 = alloca ptr, align 8
  store ptr %0, ptr %6, align 8
  store i32 %1, ptr %7, align 4
  store ptr %2, ptr %8, align 8
  store ptr %3, ptr %9, align 8
  store i32 %4, ptr %10, align 4
  call void @llvm.lifetime.start.p0(i64 4, ptr %11) #7
  %17 = load ptr, ptr %6, align 8
  %18 = load i32, ptr %7, align 4
  %19 = call i32 @tvb_get_letohl(ptr noundef %17, i32 noundef %18)
  store i32 %19, ptr %11, align 4
  %20 = load ptr, ptr %8, align 8
  %21 = icmp ne ptr %20, null
  br i1 %21, label %22, label %98

22:                                               ; preds = %5
  call void @llvm.lifetime.start.p0(i64 16, ptr %12) #7
  call void @llvm.lifetime.start.p0(i64 8, ptr %13) #7
  store ptr null, ptr %13, align 8
  call void @llvm.lifetime.start.p0(i64 8, ptr %14) #7
  store ptr null, ptr %14, align 8
  call void @llvm.lifetime.start.p0(i64 8, ptr %15) #7
  store ptr null, ptr %15, align 8
  %23 = load i32, ptr %11, align 4
  %24 = icmp ne i32 %23, 0
  br i1 %24, label %25, label %29

25:                                               ; preds = %22
  %26 = load ptr, ptr %6, align 8
  %27 = load i32, ptr %7, align 4
  %28 = add i32 %27, 4
  call void @tvb_get_guid(ptr noundef %26, i32 noundef %28, ptr noundef %12, i32 noundef -2147483648)
  br label %31

29:                                               ; preds = %22
  %30 = call ptr @memset.inline(ptr noundef %12, i32 noundef 0, i64 noundef 16) #7
  br label %31

31:                                               ; preds = %29, %25
  %32 = load ptr, ptr %8, align 8
  %33 = load i32, ptr %10, align 4
  %34 = load ptr, ptr %6, align 8
  %35 = load i32, ptr %7, align 4
  %36 = load i32, ptr %11, align 4
  %37 = add i32 4, %36
  %38 = call ptr @proto_tree_add_guid(ptr noundef %32, i32 noundef %33, ptr noundef %34, i32 noundef %35, i32 noundef %37, ptr noundef %12)
  store ptr %38, ptr %13, align 8
  %39 = load ptr, ptr %13, align 8
  %40 = icmp ne ptr %39, null
  br i1 %40, label %41, label %61

41:                                               ; preds = %31
  %42 = load ptr, ptr %9, align 8
  %43 = getelementptr inbounds nuw %struct._packet_info, ptr %42, i32 0, i32 51
  %44 = load ptr, ptr %43, align 8
  %45 = call ptr @guids_get_guid_name(ptr noundef %12, ptr noundef %44)
  store ptr %45, ptr %15, align 8
  %46 = load ptr, ptr %15, align 8
  %47 = icmp ne ptr %46, null
  br i1 %47, label %48, label %57

48:                                               ; preds = %41
  %49 = load ptr, ptr %13, align 8
  %50 = load i32, ptr %10, align 4
  %51 = call ptr @proto_registrar_get_name(i32 noundef %50)
  %52 = load ptr, ptr %15, align 8
  %53 = load ptr, ptr %9, align 8
  %54 = getelementptr inbounds nuw %struct._packet_info, ptr %53, i32 0, i32 51
  %55 = load ptr, ptr %54, align 8
  %56 = call ptr @guid_to_str(ptr noundef %55, ptr noundef %12)
  call void (ptr, ptr, ...) @proto_item_set_text(ptr noundef %49, ptr noundef @.str.220, ptr noundef %51, ptr noundef %52, ptr noundef %56)
  br label %57

57:                                               ; preds = %48, %41
  %58 = load ptr, ptr %13, align 8
  %59 = load i32, ptr @ett_dtpt_guid, align 4
  %60 = call ptr @proto_item_add_subtree(ptr noundef %58, i32 noundef %59)
  store ptr %60, ptr %14, align 8
  br label %61

61:                                               ; preds = %57, %31
  %62 = load ptr, ptr %14, align 8
  %63 = icmp ne ptr %62, null
  br i1 %63, label %64, label %97

64:                                               ; preds = %61
  call void @llvm.lifetime.start.p0(i64 8, ptr %16) #7
  store ptr null, ptr %16, align 8
  %65 = load ptr, ptr %14, align 8
  %66 = load i32, ptr @hf_dtpt_guid_length, align 4
  %67 = load ptr, ptr %6, align 8
  %68 = load i32, ptr %7, align 4
  %69 = load i32, ptr %11, align 4
  %70 = call ptr @proto_tree_add_uint(ptr noundef %65, i32 noundef %66, ptr noundef %67, i32 noundef %68, i32 noundef 4, i32 noundef %69)
  %71 = load i32, ptr %11, align 4
  %72 = icmp ne i32 %71, 0
  br i1 %72, label %73, label %96

73:                                               ; preds = %64
  %74 = load ptr, ptr %14, align 8
  %75 = load i32, ptr @hf_dtpt_guid_data, align 4
  %76 = load ptr, ptr %6, align 8
  %77 = load i32, ptr %7, align 4
  %78 = add i32 %77, 4
  %79 = load i32, ptr %11, align 4
  %80 = call ptr @proto_tree_add_guid(ptr noundef %74, i32 noundef %75, ptr noundef %76, i32 noundef %78, i32 noundef %79, ptr noundef %12)
  store ptr %80, ptr %16, align 8
  %81 = load ptr, ptr %15, align 8
  %82 = icmp ne ptr %81, null
  br i1 %82, label %83, label %95

83:                                               ; preds = %73
  %84 = load ptr, ptr %16, align 8
  %85 = icmp ne ptr %84, null
  br i1 %85, label %86, label %95

86:                                               ; preds = %83
  %87 = load ptr, ptr %16, align 8
  %88 = load i32, ptr @hf_dtpt_guid_data, align 4
  %89 = call ptr @proto_registrar_get_name(i32 noundef %88)
  %90 = load ptr, ptr %15, align 8
  %91 = load ptr, ptr %9, align 8
  %92 = getelementptr inbounds nuw %struct._packet_info, ptr %91, i32 0, i32 51
  %93 = load ptr, ptr %92, align 8
  %94 = call ptr @guid_to_str(ptr noundef %93, ptr noundef %12)
  call void (ptr, ptr, ...) @proto_item_set_text(ptr noundef %87, ptr noundef @.str.220, ptr noundef %89, ptr noundef %90, ptr noundef %94)
  br label %95

95:                                               ; preds = %86, %83, %73
  br label %96

96:                                               ; preds = %95, %64
  call void @llvm.lifetime.end.p0(i64 8, ptr %16) #7
  br label %97

97:                                               ; preds = %96, %61
  call void @llvm.lifetime.end.p0(i64 8, ptr %15) #7
  call void @llvm.lifetime.end.p0(i64 8, ptr %14) #7
  call void @llvm.lifetime.end.p0(i64 8, ptr %13) #7
  call void @llvm.lifetime.end.p0(i64 16, ptr %12) #7
  br label %98

98:                                               ; preds = %97, %5
  %99 = load i32, ptr %7, align 4
  %100 = add i32 %99, 4
  store i32 %100, ptr %7, align 4
  %101 = load i32, ptr %11, align 4
  %102 = load i32, ptr %7, align 4
  %103 = add i32 %102, %101
  store i32 %103, ptr %7, align 4
  %104 = load i32, ptr %7, align 4
  call void @llvm.lifetime.end.p0(i64 4, ptr %11) #7
  ret i32 %104
}