; Function Attrs: null_pointer_is_valid sspstrong uwtable
define internal fastcc i32 @dissect_dtpt_guid(ptr noundef %0, i32 noundef %1, ptr noundef %2, ptr noundef readonly captures(none) %3, i32 noundef %4) unnamed_addr #0 {
  %6 = alloca %struct._e_guid_t, align 4
  %7 = tail call i32 @tvb_get_letohl(ptr noundef %0, i32 noundef %1)
  %.not = icmp eq ptr %2, null
  br i1 %.not, label %40, label %8

8:                                                ; preds = %5
  call void @llvm.lifetime.start.p0(i64 16, ptr nonnull %6) #5
  %.not44 = icmp eq i32 %7, 0
  br i1 %.not44, label %11, label %9

9:                                                ; preds = %8
  %10 = add i32 %1, 4
  call void @tvb_get_guid(ptr noundef %0, i32 noundef %10, ptr noundef nonnull %6, i32 noundef -2147483648)
  br label %12

11:                                               ; preds = %8
  call void @llvm.memset.p0.i64(ptr noundef nonnull align 4 dereferenceable(16) %6, i8 noundef 0, i64 noundef 16, i1 noundef false) #5
  br label %12

12:                                               ; preds = %11, %9
  %13 = add i32 %7, 4
  %14 = call ptr @proto_tree_add_guid(ptr noundef nonnull %2, i32 noundef %4, ptr noundef %0, i32 noundef %1, i32 noundef %13, ptr noundef nonnull %6)
  %.not45 = icmp eq ptr %14, null
  br i1 %.not45, label %.thread, label %15

15:                                               ; preds = %12
  %16 = getelementptr inbounds nuw i8, ptr %3, i64 408
  %17 = load ptr, ptr %16, align 8
  %18 = call ptr @guids_get_guid_name(ptr noundef nonnull %6, ptr noundef %17)
  %.not46 = icmp eq ptr %18, null
  br i1 %.not46, label %23, label %19

19:                                               ; preds = %15
  %20 = call ptr @proto_registrar_get_name(i32 noundef %4)
  %21 = load ptr, ptr %16, align 8
  %22 = call ptr @guid_to_str(ptr noundef %21, ptr noundef nonnull %6)
  call void (ptr, ptr, ...) @proto_item_set_text(ptr noundef nonnull %14, ptr noundef nonnull @.str.220, ptr noundef %20, ptr noundef nonnull %18, ptr noundef %22)
  br label %23

23:                                               ; preds = %15, %19
  %24 = load i32, ptr @ett_dtpt_guid, align 4
  %25 = call ptr @proto_item_add_subtree(ptr noundef nonnull %14, i32 noundef %24)
  %.not47 = icmp eq ptr %25, null
  br i1 %.not47, label %.thread, label %26

26:                                               ; preds = %23
  %27 = load i32, ptr @hf_dtpt_guid_length, align 4
  %28 = call ptr @proto_tree_add_uint(ptr noundef nonnull %25, i32 noundef %27, ptr noundef %0, i32 noundef %1, i32 noundef 4, i32 noundef %7)
  br i1 %.not44, label %.thread, label %29

29:                                               ; preds = %26
  %30 = load i32, ptr @hf_dtpt_guid_data, align 4
  %31 = add i32 %1, 4
  %32 = call ptr @proto_tree_add_guid(ptr noundef nonnull %25, i32 noundef %30, ptr noundef %0, i32 noundef %31, i32 noundef %7, ptr noundef nonnull %6)
  %33 = icmp ne ptr %18, null
  %34 = icmp ne ptr %32, null
  %or.cond = select i1 %33, i1 %34, i1 false
  br i1 %or.cond, label %35, label %.thread

35:                                               ; preds = %29
  %36 = load i32, ptr @hf_dtpt_guid_data, align 4
  %37 = call ptr @proto_registrar_get_name(i32 noundef %36)
  %38 = load ptr, ptr %16, align 8
  %39 = call ptr @guid_to_str(ptr noundef %38, ptr noundef nonnull %6)
  call void (ptr, ptr, ...) @proto_item_set_text(ptr noundef nonnull %32, ptr noundef nonnull @.str.220, ptr noundef %37, ptr noundef nonnull %18, ptr noundef %39)
  br label %.thread

.thread:                                          ; preds = %12, %26, %35, %29, %23
  call void @llvm.lifetime.end.p0(i64 16, ptr nonnull %6) #5
  br label %40

40:                                               ; preds = %.thread, %5
  %41 = add i32 %1, 4
  %42 = add i32 %41, %7
  ret i32 %42
}